target datalayout = "e-m:e-p270:32:32-p271:32:32-p272:64:64-i64:64-i128:128-f80:128-n8:16:32:64-S128"
target triple = "x86_64-pc-linux-gnu"

; Function Attrs: nounwind uwtable
define hidden void @SDL_TimeToWindows_REAL(i64 noundef %0, ptr noundef %1, ptr noundef %2) #0 {
  %4 = alloca i64, align 8
  %5 = alloca ptr, align 8
  %6 = alloca ptr, align 8
  %7 = alloca i64, align 8
  store i64 %0, ptr %4, align 8
  store ptr %1, ptr %5, align 8
  store ptr %2, ptr %6, align 8
  call void @llvm.lifetime.start.p0(i64 8, ptr %7) #3
  %8 = load i64, ptr %4, align 8
  %9 = sdiv i64 %8, 100
  %10 = add nsw i64 %9, 116444736000000000
  store i64 %10, ptr %7, align 8
  %11 = load ptr, ptr %5, align 8
  %12 = icmp ne ptr %11, null
  br i1 %12, label %13, label %17

13:                                               ; preds = %3
  %14 = load i64, ptr %7, align 8
  %15 = trunc i64 %14 to i32
  %16 = load ptr, ptr %5, align 8
  store i32 %15, ptr %16, align 4
  br label %17

17:                                               ; preds = %13, %3
  %18 = load ptr, ptr %6, align 8
  %19 = icmp ne ptr %18, null
  br i1 %19, label %20, label %25

20:                                               ; preds = %17
  %21 = load i64, ptr %7, align 8
  %22 = lshr i64 %21, 32
  %23 = trunc i64 %22 to i32
  %24 = load ptr, ptr %6, align 8
  store i32 %23, ptr %24, align 4
  br label %25

25:                                               ; preds = %20, %17
  call void @llvm.lifetime.end.p0(i64 8, ptr %7) #3
  ret void
}