; Function Attrs: mustprogress nofree norecurse nosync nounwind willreturn memory(argmem: write) uwtable
define hidden void @SDL_TimeToWindows_REAL(i64 noundef %0, ptr noundef writeonly captures(address_is_null) %1, ptr noundef writeonly captures(address_is_null) %2) local_unnamed_addr #0 {
  %4 = sdiv i64 %0, 100
  %5 = add nsw i64 %4, 116444736000000000
  %.not = icmp eq ptr %1, null
  br i1 %.not, label %8, label %6

6:                                                ; preds = %3
  %7 = trunc i64 %5 to i32
  store i32 %7, ptr %1, align 4
  br label %8

8:                                                ; preds = %6, %3
  %.not7 = icmp eq ptr %2, null
  br i1 %.not7, label %12, label %9

9:                                                ; preds = %8
  %10 = lshr i64 %5, 32
  %11 = trunc nuw nsw i64 %10 to i32
  store i32 %11, ptr %2, align 4
  br label %12

12:                                               ; preds = %9, %8
  ret void
}